; Function Attrs: mustprogress nounwind uwtable
define void @_ZN12t_forcetableD2Ev(ptr nocapture noundef nonnull readonly align 8 dereferenceable(56) %0) unnamed_addr #5 align 2 personality ptr @__gxx_personality_v0 {
  %2 = getelementptr inbounds i8, ptr %0, i64 24
  %3 = load ptr, ptr %2, align 8
  %.not.i.i.i = icmp eq ptr %3, null
  br i1 %.not.i.i.i, label %_ZNSt6vectorIfN3gmx9AllocatorIfNS0_23AlignedAllocationPolicyEEEED2Ev.exit, label %4

4:                                                ; preds = %1
  invoke void @_ZN3gmx23AlignedAllocationPolicy4freeEPv(ptr noundef nonnull %3)
          to label %_ZNSt6vectorIfN3gmx9AllocatorIfNS0_23AlignedAllocationPolicyEEEED2Ev.exit unwind label %5

5:                                                ; preds = %4
  %6 = landingpad { ptr, i32 }
          catch ptr null
  %7 = extractvalue { ptr, i32 } %6, 0
  tail call void @__clang_call_terminate(ptr %7) #24
  unreachable

_ZNSt6vectorIfN3gmx9AllocatorIfNS0_23AlignedAllocationPolicyEEEED2Ev.exit: ; preds = %1, %4
  ret void
}